; Function Attrs: mustprogress nounwind uwtable
define hidden void @_ZN11G1NewTracer26send_basic_ihop_statisticsEmmmmdd(ptr nocapture noundef nonnull readnone align 8 dereferenceable(88) %0, i64 noundef %1, i64 noundef %2, i64 noundef %3, i64 noundef %4, double noundef %5, double noundef %6) local_unnamed_addr #0 align 2 {
  %8 = alloca %class.EventG1BasicIHOP, align 8
  %9 = getelementptr inbounds i8, ptr %8, i64 8
  call void @llvm.memset.p0.i64(ptr noundef nonnull align 8 dereferenceable(11) %9, i8 0, i64 11, i1 false)
  %10 = load i8, ptr getelementptr inbounds (i8, ptr @_ZN15JfrEventSetting19_jvm_event_settingsE, i64 1385), align 1
  %.not.i.not = icmp eq i8 %10, 0
  br i1 %.not.i.not, label %_ZN8JfrEventI16EventG1BasicIHOPE13should_commitEv.exit, label %11

11:                                               ; preds = %7
  %12 = getelementptr inbounds i8, ptr %8, i64 18
  %13 = getelementptr inbounds i8, ptr %8, i64 17
  %14 = tail call noundef i64 @_ZN33FastUnorderedElapsedCounterSource3nowEv() #11
  store i64 %14, ptr %8, align 8
  store i8 1, ptr %13, align 1
  store i8 1, ptr %12, align 2
  %15 = tail call noundef i32 @_ZN4GCId7currentEv() #11
  %16 = getelementptr inbounds i8, ptr %8, i64 20
  store i32 %15, ptr %16, align 4
  %17 = getelementptr inbounds i8, ptr %8, i64 24
  store i64 %1, ptr %17, align 8
  %18 = getelementptr inbounds i8, ptr %8, i64 40
  store i64 %2, ptr %18, align 8
  %.not = icmp eq i64 %2, 0
  %19 = uitofp i64 %1 to double
  %20 = uitofp i64 %2 to double
  %21 = fdiv double %19, %20
  %22 = fptrunc double %21 to float
  %23 = select i1 %.not, float 0.000000e+00, float %22
  %24 = getelementptr inbounds i8, ptr %8, i64 32
  store float %23, ptr %24, align 8
  %25 = getelementptr inbounds i8, ptr %8, i64 48
  store i64 %3, ptr %25, align 8
  %26 = getelementptr inbounds i8, ptr %8, i64 56
  store i64 %4, ptr %26, align 8
  %27 = fmul double %5, 1.000000e+03
  %28 = fptosi double %27 to i64
  %29 = getelementptr inbounds i8, ptr %8, i64 64
  store i64 %28, ptr %29, align 8
  %30 = fcmp une double %5, 0.000000e+00
  %31 = uitofp i64 %4 to double
  %32 = fdiv double %31, %5
  %33 = select i1 %30, double %32, double 0.000000e+00
  %34 = getelementptr inbounds i8, ptr %8, i64 72
  store double %33, ptr %34, align 8
  %35 = fmul double %6, 1.000000e+03
  %36 = fptosi double %35 to i64
  %37 = getelementptr inbounds i8, ptr %8, i64 80
  store i64 %36, ptr %37, align 8
  call void @_ZN8JfrEventI16EventG1BasicIHOPE6commitEv(ptr noundef nonnull align 8 dereferenceable(19) %8)
  br label %_ZN8JfrEventI16EventG1BasicIHOPE13should_commitEv.exit

_ZN8JfrEventI16EventG1BasicIHOPE13should_commitEv.exit: ; preds = %7, %11
  ret void
}